; Function Attrs: nounwind uwtable
define dso_local ptr @parse_analyze_fixedparams(ptr noundef readonly captures(none) %0, ptr noundef %1, ptr noundef %2, i32 noundef %3, ptr noundef %4) local_unnamed_addr #0 {
  %6 = tail call ptr @make_parsestate(ptr noundef null) #11
  %7 = getelementptr inbounds nuw i8, ptr %6, i64 8
  store ptr %1, ptr %7, align 8
  %8 = icmp sgt i32 %3, 0
  br i1 %8, label %9, label %10

9:                                                ; preds = %5
  tail call void @setup_parse_fixed_parameters(ptr noundef nonnull %6, ptr noundef %2, i32 noundef %3) #11
  br label %10

10:                                               ; preds = %9, %5
  %11 = getelementptr inbounds nuw i8, ptr %6, i64 176
  store ptr %4, ptr %11, align 8
  %12 = getelementptr inbounds nuw i8, ptr %0, i64 20
  %13 = load i32, ptr %12, align 4
  %14 = getelementptr inbounds nuw i8, ptr %6, i64 20
  store i32 %13, ptr %14, align 4
  %15 = getelementptr inbounds nuw i8, ptr %0, i64 16
  %16 = load i32, ptr %15, align 8
  %17 = getelementptr inbounds nuw i8, ptr %6, i64 16
  store i32 %16, ptr %17, align 8
  %18 = getelementptr inbounds nuw i8, ptr %0, i64 8
  %19 = load ptr, ptr %18, align 8
  %20 = load i32, ptr %19, align 4
  %21 = icmp eq i32 %20, 141
  br i1 %21, label %.preheader.i.preheader.i, label %transformTopLevelStmt.exit

.preheader.i.preheader.i:                         ; preds = %10
  %22 = getelementptr inbounds nuw i8, ptr %19, i64 136
  %23 = load i32, ptr %22, align 8
  %.not17.i7.i = icmp eq i32 %23, 0
  br i1 %.not17.i7.i, label %.critedge.i.i, label %.preheader.i.i

.preheader.i.i:                                   ; preds = %.preheader.i.preheader.i, %.preheader.i.i
  %.01619.i8.i = phi ptr [ %25, %.preheader.i.i ], [ %19, %.preheader.i.preheader.i ]
  %24 = getelementptr inbounds nuw i8, ptr %.01619.i8.i, i64 144
  %25 = load ptr, ptr %24, align 8, !nonnull !4, !noundef !4
  %26 = getelementptr inbounds nuw i8, ptr %25, i64 136
  %27 = load i32, ptr %26, align 8
  %.not17.i.i = icmp eq i32 %27, 0
  br i1 %.not17.i.i, label %.critedge.i.i, label %.preheader.i.i

.critedge.i.i:                                    ; preds = %.preheader.i.i, %.preheader.i.preheader.i
  %.01619.i.lcssa.i = phi ptr [ %19, %.preheader.i.preheader.i ], [ %25, %.preheader.i.i ]
  %28 = getelementptr inbounds nuw i8, ptr %.01619.i.lcssa.i, i64 16
  %29 = load ptr, ptr %28, align 8
  %.not18.i.i = icmp eq ptr %29, null
  br i1 %.not18.i.i, label %transformTopLevelStmt.exit, label %30

30:                                               ; preds = %.critedge.i.i
  %31 = tail call noundef ptr @palloc0(i64 noundef 32) #11
  store i32 241, ptr %31, align 4
  %32 = getelementptr inbounds nuw i8, ptr %31, i64 8
  store ptr %19, ptr %32, align 8
  %33 = load ptr, ptr %28, align 8
  %34 = getelementptr inbounds nuw i8, ptr %31, i64 16
  store ptr %33, ptr %34, align 8
  %35 = getelementptr inbounds nuw i8, ptr %31, i64 24
  store i32 41, ptr %35, align 8
  %36 = getelementptr inbounds nuw i8, ptr %31, i64 28
  store i8 1, ptr %36, align 4
  store ptr null, ptr %28, align 8
  br label %transformTopLevelStmt.exit

transformTopLevelStmt.exit:                       ; preds = %10, %.critedge.i.i, %30
  %.0.i.i = phi ptr [ %19, %10 ], [ %31, %30 ], [ %19, %.critedge.i.i ]
  %37 = tail call ptr @transformStmt(ptr noundef %6, ptr noundef nonnull %.0.i.i)
  %38 = load i32, ptr @compute_query_id, align 4
  switch i32 %38, label %IsQueryIdEnabled.exit [
    i32 0, label %IsQueryIdEnabled.exit.thread19
    i32 1, label %IsQueryIdEnabled.exit.thread
  ]

IsQueryIdEnabled.exit:                            ; preds = %transformTopLevelStmt.exit
  %39 = load i8, ptr @query_id_enabled, align 1, !range !5, !noundef !4
  %40 = trunc nuw i8 %39 to i1
  br i1 %40, label %IsQueryIdEnabled.exit.thread, label %IsQueryIdEnabled.exit.thread19

IsQueryIdEnabled.exit.thread:                     ; preds = %transformTopLevelStmt.exit, %IsQueryIdEnabled.exit
  %41 = tail call ptr @JumbleQuery(ptr noundef %37) #11
  br label %IsQueryIdEnabled.exit.thread19

IsQueryIdEnabled.exit.thread19:                   ; preds = %transformTopLevelStmt.exit, %IsQueryIdEnabled.exit.thread, %IsQueryIdEnabled.exit
  %.0 = phi ptr [ %41, %IsQueryIdEnabled.exit.thread ], [ null, %IsQueryIdEnabled.exit ], [ null, %transformTopLevelStmt.exit ]
  %42 = load ptr, ptr @post_parse_analyze_hook, align 8
  %.not = icmp eq ptr %42, null
  br i1 %.not, label %44, label %43

43:                                               ; preds = %IsQueryIdEnabled.exit.thread19
  tail call void %42(ptr noundef %6, ptr noundef %37, ptr noundef %.0) #11
  br label %44

44:                                               ; preds = %43, %IsQueryIdEnabled.exit.thread19
  tail call void @free_parsestate(ptr noundef %6) #11
  %45 = getelementptr inbounds nuw i8, ptr %37, i64 16
  %46 = load i64, ptr %45, align 8
  tail call void @pgstat_report_query_id(i64 noundef %46, i1 noundef zeroext false) #11
  ret ptr %37
}